target datalayout = "e-m:e-p270:32:32-p271:32:32-p272:64:64-i64:64-i128:128-f80:128-n8:16:32:64-S128"
target triple = "x86_64-unknown-linux-gnu"

%"struct.node::AssertionInfo" = type { ptr, ptr, ptr }
%"class.node::inspector::MainThreadInterface" = type { %"class.std::enable_shared_from_this", %"class.std::deque", %"class.node::MutexBase", %"class.std::deque", i8, %"class.node::ConditionVariableBase", ptr, %"class.std::shared_ptr", %"class.std::unordered_map" }
%"class.std::enable_shared_from_this" = type { %"class.std::weak_ptr" }
%"class.std::weak_ptr" = type { %"class.std::__weak_ptr" }
%"class.std::__weak_ptr" = type { ptr, %"class.std::__weak_count" }
%"class.std::__weak_count" = type { ptr }
%"class.node::MutexBase" = type { %union.pthread_mutex_t }
%union.pthread_mutex_t = type { %struct.__pthread_mutex_s }
%struct.__pthread_mutex_s = type { i32, i32, i32, i32, i32, i16, i16, %struct.__pthread_internal_list }
%struct.__pthread_internal_list = type { ptr, ptr }
%"class.std::deque" = type { %"class.std::_Deque_base" }
%"class.std::_Deque_base" = type { %"struct.std::_Deque_base<std::unique_ptr<node::inspector::Request>, std::allocator<std::unique_ptr<node::inspector::Request>>>::_Deque_impl" }
%"struct.std::_Deque_base<std::unique_ptr<node::inspector::Request>, std::allocator<std::unique_ptr<node::inspector::Request>>>::_Deque_impl" = type { %"struct.std::_Deque_base<std::unique_ptr<node::inspector::Request>, std::allocator<std::unique_ptr<node::inspector::Request>>>::_Deque_impl_data" }
%"struct.std::_Deque_base<std::unique_ptr<node::inspector::Request>, std::allocator<std::unique_ptr<node::inspector::Request>>>::_Deque_impl_data" = type { ptr, i64, %"struct.std::_Deque_iterator", %"struct.std::_Deque_iterator" }
%"struct.std::_Deque_iterator" = type { ptr, ptr, ptr, ptr }
%"class.node::ConditionVariableBase" = type { %union.pthread_cond_t }
%union.pthread_cond_t = type { %struct.__pthread_cond_s }
%struct.__pthread_cond_s = type { %union.__atomic_wide_counter, %union.__atomic_wide_counter, [2 x i32], [2 x i32], i32, i32, [2 x i32] }
%union.__atomic_wide_counter = type { i64 }
%"class.std::shared_ptr" = type { %"class.std::__shared_ptr" }
%"class.std::__shared_ptr" = type { ptr, %"class.std::__shared_count" }
%"class.std::__shared_count" = type { ptr }
%"class.std::unordered_map" = type { %"class.std::_Hashtable" }
%"class.std::_Hashtable" = type { ptr, i64, %"struct.std::__detail::_Hash_node_base", i64, %"struct.std::__detail::_Prime_rehash_policy", ptr }
%"struct.std::__detail::_Hash_node_base" = type { ptr }
%"struct.std::__detail::_Prime_rehash_policy" = type { float, i64 }
%"class.node::inspector::Request" = type { ptr }
%"class.node::inspector::(anonymous namespace)::DeleteRequest" = type <{ %"class.node::inspector::Request", i32, [4 x i8] }>

@_ZZN4node9inspector19MainThreadInterface12RemoveObjectEiE4args = internal constant %"struct.node::AssertionInfo" { ptr @.str.6, ptr @.str.7, ptr @.str.8 }, align 8

; Function Attrs: mustprogress nounwind uwtable
define linkonce_odr dso_local noundef i64 @_ZNSt10_HashtableIiSt4pairIKiSt10unique_ptrIN4node9inspector9DeletableESt14default_deleteIS5_EEESaIS9_ENSt8__detail10_Select1stESt8equal_toIiESt4hashIiENSB_18_Mod_range_hashingENSB_20_Default_ranged_hashENSB_20_Prime_rehash_policyENSB_17_Hashtable_traitsILb0ELb0ELb1EEEE5eraseERS1_(ptr noundef nonnull align 8 dereferenceable(56) %this, ptr noundef nonnull align 4 dereferenceable(4) %__k) #4 comdat align 2 {
entry:
  %this.addr = alloca ptr, align 8
  %__k.addr = alloca ptr, align 8
  store ptr %this, ptr %this.addr, align 8
  store ptr %__k, ptr %__k.addr, align 8
  %this1 = load ptr, ptr %this.addr, align 8
  %0 = load ptr, ptr %__k.addr, align 8
  %call = call noundef i64 @_ZNSt10_HashtableIiSt4pairIKiSt10unique_ptrIN4node9inspector9DeletableESt14default_deleteIS5_EEESaIS9_ENSt8__detail10_Select1stESt8equal_toIiESt4hashIiENSB_18_Mod_range_hashingENSB_20_Default_ranged_hashENSB_20_Prime_rehash_policyENSB_17_Hashtable_traitsILb0ELb0ELb1EEEE8_M_eraseESt17integral_constantIbLb1EERS1_(ptr noundef nonnull align 8 dereferenceable(56) %this1, ptr noundef nonnull align 4 dereferenceable(4) %0)
  ret i64 %call
}

; Function Attrs: mustprogress nounwind uwtable
define linkonce_odr dso_local noundef i64 @_ZNSt13unordered_mapIiSt10unique_ptrIN4node9inspector9DeletableESt14default_deleteIS3_EESt4hashIiESt8equal_toIiESaISt4pairIKiS6_EEE5eraseERSC_(ptr noundef nonnull align 8 dereferenceable(56) %this, ptr noundef nonnull align 4 dereferenceable(4) %__x) #4 comdat align 2 {
entry:
  %this.addr = alloca ptr, align 8
  %__x.addr = alloca ptr, align 8
  store ptr %this, ptr %this.addr, align 8
  store ptr %__x, ptr %__x.addr, align 8
  %this1 = load ptr, ptr %this.addr, align 8
  %_M_h = getelementptr inbounds %"class.std::unordered_map", ptr %this1, i32 0, i32 0
  %0 = load ptr, ptr %__x.addr, align 8
  %call = call noundef i64 @_ZNSt10_HashtableIiSt4pairIKiSt10unique_ptrIN4node9inspector9DeletableESt14default_deleteIS5_EEESaIS9_ENSt8__detail10_Select1stESt8equal_toIiESt4hashIiENSB_18_Mod_range_hashingENSB_20_Default_ranged_hashENSB_20_Prime_rehash_policyENSB_17_Hashtable_traitsILb0ELb0ELb1EEEE5eraseERS1_(ptr noundef nonnull align 8 dereferenceable(56) %_M_h, ptr noundef nonnull align 4 dereferenceable(4) %0)
  ret i64 %call
}

; Function Attrs: mustprogress nounwind uwtable
define dso_local void @_ZN4node9inspector19MainThreadInterface12RemoveObjectEi(ptr noundef nonnull align 8 dereferenceable(352) %this, i32 noundef %id) #4 align 2 {
entry:
  %this.addr = alloca ptr, align 8
  %id.addr = alloca i32, align 4
  store ptr %this, ptr %this.addr, align 8
  store i32 %id, ptr %id.addr, align 4
  %this1 = load ptr, ptr %this.addr, align 8
  br label %do.body

do.body:                                          ; preds = %entry
  %managed_objects_ = getelementptr inbounds %"class.node::inspector::MainThreadInterface", ptr %this1, i32 0, i32 8
  %call = call noundef i64 @_ZNSt13unordered_mapIiSt10unique_ptrIN4node9inspector9DeletableESt14default_deleteIS3_EESt4hashIiESt8equal_toIiESaISt4pairIKiS6_EEE5eraseERSC_(ptr noundef nonnull align 8 dereferenceable(56) %managed_objects_, ptr noundef nonnull align 4 dereferenceable(4) %id.addr)
  %cmp = icmp eq i64 1, %call
  %lnot = xor i1 %cmp, true
  %lnot2 = xor i1 %lnot, true
  %lnot3 = xor i1 %lnot2, true
  br i1 %lnot3, label %if.then, label %if.end

if.then:                                          ; preds = %do.body
  br label %do.body4

do.body4:                                         ; preds = %if.then
  call void @_ZN4node6AssertERKNS_13AssertionInfoE(ptr noundef nonnull align 8 dereferenceable(24) @_ZZN4node9inspector19MainThreadInterface12RemoveObjectEiE4args)
  call void @abort() #13
  unreachable

do.end:                                           ; No predecessors!
  br label %if.end

if.end:                                           ; preds = %do.end, %do.body
  br label %do.end5

do.end5:                                          ; preds = %if.end
  ret void
}

; Function Attrs: mustprogress nounwind uwtable
define internal void @_ZN4node9inspector12_GLOBAL__N_113DeleteRequest4CallEPNS0_19MainThreadInterfaceE(ptr noundef nonnull align 8 dereferenceable(12) %this, ptr noundef %thread) unnamed_addr #4 align 2 {
entry:
  %this.addr = alloca ptr, align 8
  %thread.addr = alloca ptr, align 8
  store ptr %this, ptr %this.addr, align 8
  store ptr %thread, ptr %thread.addr, align 8
  %this1 = load ptr, ptr %this.addr, align 8
  %0 = load ptr, ptr %thread.addr, align 8
  %object_id_ = getelementptr inbounds %"class.node::inspector::(anonymous namespace)::DeleteRequest", ptr %this1, i32 0, i32 1
  %1 = load i32, ptr %object_id_, align 8
  call void @_ZN4node9inspector19MainThreadInterface12RemoveObjectEi(ptr noundef nonnull align 8 dereferenceable(352) %0, i32 noundef %1)
  ret void
}