; Function Attrs: mustprogress nounwind uwtable
define internal void @_ZN4node9inspector12_GLOBAL__N_113DeleteRequest4CallEPNS0_19MainThreadInterfaceE(ptr nocapture noundef nonnull readonly align 8 dereferenceable(12) %this, ptr noundef %thread) unnamed_addr #3 align 2 {
entry:
  %id.addr.i = alloca i32, align 4
  %object_id_ = getelementptr inbounds i8, ptr %this, i64 8
  %0 = load i32, ptr %object_id_, align 8
  call void @llvm.lifetime.start.p0(i64 4, ptr nonnull %id.addr.i)
  store i32 %0, ptr %id.addr.i, align 4
  %managed_objects_.i = getelementptr inbounds i8, ptr %thread, i64 296
  %call.i.i.i = call noundef i64 @_ZNSt10_HashtableIiSt4pairIKiSt10unique_ptrIN4node9inspector9DeletableESt14default_deleteIS5_EEESaIS9_ENSt8__detail10_Select1stESt8equal_toIiESt4hashIiENSB_18_Mod_range_hashingENSB_20_Default_ranged_hashENSB_20_Prime_rehash_policyENSB_17_Hashtable_traitsILb0ELb0ELb1EEEE8_M_eraseESt17integral_constantIbLb1EERS1_(ptr noundef nonnull align 8 dereferenceable(56) %managed_objects_.i, ptr noundef nonnull align 4 dereferenceable(4) %id.addr.i)
  %cmp.not.i = icmp eq i64 %call.i.i.i, 1
  br i1 %cmp.not.i, label %_ZN4node9inspector19MainThreadInterface12RemoveObjectEi.exit, label %do.body4.i

do.body4.i:                                       ; preds = %entry
  call void @_ZN4node6AssertERKNS_13AssertionInfoE(ptr noundef nonnull align 8 dereferenceable(24) @_ZZN4node9inspector19MainThreadInterface12RemoveObjectEiE4args) #20
  call void @abort() #21
  unreachable

_ZN4node9inspector19MainThreadInterface12RemoveObjectEi.exit: ; preds = %entry
  call void @llvm.lifetime.end.p0(i64 4, ptr nonnull %id.addr.i)
  ret void
}